; Function Attrs: mustprogress uwtable
define void @_ZN8QuantLib9Thirty365C2Ev(ptr nocapture noundef nonnull writeonly align 8 dereferenceable(16) %this) unnamed_addr #0 align 2 personality ptr @__gxx_personality_v0 {
entry:
  %agg.tmp = alloca %"class.boost::shared_ptr", align 8
  %call = tail call noalias noundef nonnull dereferenceable(8) ptr @_Znwm(i64 noundef 8) #10
  store ptr getelementptr inbounds inrange(-16, 40) (i8, ptr @_ZTVN8QuantLib9Thirty3654ImplE, i64 16), ptr %call, align 8, !tbaa !8
  store ptr %call, ptr %agg.tmp, align 8, !tbaa !10
  %pn.i = getelementptr inbounds nuw i8, ptr %agg.tmp, i64 8
  store ptr null, ptr %pn.i, align 8, !tbaa !14
  invoke void @_ZN5boost6detail20sp_pointer_constructIN8QuantLib10DayCounter4ImplENS2_9Thirty3654ImplEEEvPNS_10shared_ptrIT_EEPT0_RNS0_12shared_countE(ptr noundef nonnull %agg.tmp, ptr noundef nonnull %call, ptr noundef nonnull align 8 dereferenceable(8) %pn.i)
          to label %_ZN5boost10shared_ptrIN8QuantLib10DayCounter4ImplEED2Ev.exit unwind label %lpad.i

lpad.i:                                           ; preds = %entry
  %0 = landingpad { ptr, i32 }
          cleanup
  call void @_ZN5boost6detail12shared_countD2Ev(ptr noundef nonnull align 8 dereferenceable(8) %pn.i) #11
  resume { ptr, i32 } %0

_ZN5boost10shared_ptrIN8QuantLib10DayCounter4ImplEED2Ev.exit: ; preds = %entry
  %1 = load ptr, ptr %agg.tmp, align 8, !tbaa !10
  store ptr %1, ptr %this, align 8, !tbaa !10
  %pn.i.i = getelementptr inbounds nuw i8, ptr %this, i64 8
  %2 = load ptr, ptr %pn.i, align 8, !tbaa !14
  store ptr %2, ptr %pn.i.i, align 8, !tbaa !14
  ret void
}